cnumpy.core.multiarray
_reconstruct
p1
(cnumpy
ndarray
p2
(I0
tS'b'
tRp3
(I1
(I891
I8
tcnumpy
dtype
p4
(S'O8'
I0
I1
tRp5
(I3
S'|'
NNNI-1
I-1
I63
tbI01
(lp6
I3
aS'0'
aF22
aI1
aI0
aF7.25
aS'0'
aS'0'
aI1
aS'1'
aF38
aI1
aI0
aF71.283299999999997
aS'0'
aS'1'
aI3
aS'1'
aF26
aI0
aI0
aF7.9249999999999998
aS'0'
aS'0'
aI1
aS'1'
aF35
aI1
aI0
aF53.100000000000001
aS'0'
aS'0'
aI3
aS'0'
aF35
aI0
aI0
aF8.0500000000000007
aS'0'
aS'0'
aI3
aS'0'
aF29.881137667304014
aI0
aI0
aF8.4582999999999995
aS'1'
aS'0'
aI1
aS'0'
aF54
aI0
aI0
aF51.862499999999997
aS'0'
aS'0'
aI3
aS'0'
aF2
aI3
aI1
aF21.074999999999999
aS'0'
aS'0'
aI3
aS'1'
aF27
aI0
aI2
aF11.1333
aS'0'
aS'0'
aI2
aS'1'
aF14
aI1
aI0
aF30.070799999999998
aS'0'
aS'1'
aI3
aS'1'
aF4
aI1
aI1
aF16.699999999999999
aS'0'
aS'0'
aI1
aS'1'
aF58
aI0
aI0
aF26.550000000000001
aS'0'
aS'0'
aI3
aS'0'
aF20
aI0
aI0
aF8.0500000000000007
aS'0'
aS'0'
aI3
aS'0'
aF39
aI1
aI5
aF31.274999999999999
aS'0'
aS'0'
aI3
aS'1'
aF14
aI0
aI0
aF7.8541999999999996
aS'0'
aS'0'
aI2
aS'1'
aF55
aI0
aI0
aF16
aS'0'
aS'0'
aI3
aS'0'
aF2
aI4
aI1
aF29.125
aS'1'
aS'0'
aI2
aS'0'
aF29.881137667304014
aI0
aI0
aF13
aS'0'
aS'0'
aI3
aS'1'
aF31
aI1
aI0
aF18
aS'0'
aS'0'
aI3
aS'1'
aF29.881137667304014
aI0
aI0
aF7.2249999999999996
aS'0'
aS'1'
aI2
aS'0'
aF35
aI0
aI0
aF26
aS'0'
aS'0'
aI2
aS'0'
aF34
aI0
aI0
aF13
aS'0'
aS'0'
aI3
aS'1'
aF15
aI0
aI0
aF8.0291999999999994
aS'1'
aS'0'
aI1
aS'0'
aF28
aI0
aI0
aF35.5
aS'0'
aS'0'
aI3
aS'1'
aF8
aI3
aI1
aF21.074999999999999
aS'0'
aS'0'
aI3
aS'1'
aF38
aI1
aI5
aF31.387499999999999
aS'0'
aS'0'
aI3
aS'0'
aF29.881137667304014
aI0
aI0
aF7.2249999999999996
aS'0'
aS'1'
aI1
aS'0'
aF19
aI3
aI2
aF263
aS'0'
aS'0'
aI3
aS'1'
aF29.881137667304014
aI0
aI0
aF7.8792
aS'1'
aS'0'
aI3
aS'0'
aF29.881137667304014
aI0
aI0
aF7.8958000000000004
aS'0'
aS'0'
aI1
aS'0'
aF40
aI0
aI0
aF27.720800000000001
aS'0'
aS'1'
aI1
aS'1'
aF29.881137667304014
aI1
aI0
aF146.52080000000001
aS'0'
aS'1'
aI3
aS'1'
aF29.881137667304014
aI0
aI0
aF7.75
aS'1'
aS'0'
aI2
aS'0'
aF66
aI0
aI0
aF10.5
aS'0'
aS'0'
aI1
aS'0'
aF28
aI1
aI0
aF82.1708
aS'0'
aS'1'
aI1
aS'0'
aF42
aI1
aI0
aF52
aS'0'
aS'0'
aI3
aS'0'
aF29.881137667304014
aI0
aI0
aF7.2291999999999996
aS'0'
aS'1'
aI3
aS'0'
aF21
aI0
aI0
aF8.0500000000000007
aS'0'
aS'0'
aI3
aS'1'
aF18
aI2
aI0
aF18
aS'0'
aS'0'
aI3
aS'1'
aF14
aI1
aI0
aF11.2417
aS'0'
aS'1'
aI3
aS'1'
aF40
aI1
aI0
aF9.4749999999999996
aS'0'
aS'0'
aI2
aS'1'
aF27
aI1
aI0
aF21
aS'0'
aS'0'
aI3
aS'0'
aF29.881137667304014
aI0
aI0
aF7.8958000000000004
aS'0'
aS'1'
aI2
aS'1'
aF3
aI1
aI2
aF41.5792
aS'0'
aS'1'
aI3
aS'1'
aF19
aI0
aI0
aF7.8792
aS'1'
aS'0'
aI3
aS'0'
aF29.881137667304014
aI0
aI0
aF8.0500000000000007
aS'0'
aS'0'
aI3
aS'0'
aF29.881137667304014
aI1
aI0
aF15.5
aS'1'
aS'0'
aI3
aS'1'
aF29.881137667304014
aI0
aI0
aF7.75
aS'1'
aS'0'
aI3
aS'0'
aF29.881137667304014
aI2
aI0
aF21.679200000000002
aS'0'
aS'1'
aI3
aS'1'
aF18
aI1
aI0
aF17.800000000000001
aS'0'
aS'0'
aI3
aS'0'
aF7
aI4
aI1
aF39.6875
aS'0'
aS'0'
aI3
aS'0'
aF21
aI0
aI0
aF7.7999999999999998
aS'0'
aS'0'
aI1
aS'1'
aF49
aI1
aI0
aF76.729200000000006
aS'0'
aS'1'
aI2
aS'1'
aF29
aI1
aI0
aF26
aS'0'
aS'0'
aI1
aS'0'
aF65
aI0
aI1
aF61.979199999999999
aS'0'
aS'1'
aI1
aS'0'
aF29.881137667304014
aI0
aI0
aF35.5
aS'0'
aS'0'
aI2
aS'1'
aF21
aI0
aI0
aF10.5
aS'0'
aS'0'
aI3
aS'0'
aF28.5
aI0
aI0
aF7.2291999999999996
aS'0'
aS'1'
aI2
aS'1'
aF5
aI1
aI2
aF27.75
aS'0'
aS'0'
aI3
aS'0'
aF11
aI5
aI2
aF46.899999999999999
aS'0'
aS'0'
aI3
aS'0'
aF22
aI0
aI0
aF7.2291999999999996
aS'0'
aS'1'
aI1
aS'1'
aF38
aI0
aI0
aF80
aS'1'
aS'1'
aI1
aS'0'
aF45
aI1
aI0
aF83.474999999999994
aS'0'
aS'0'
aI3
aS'0'
aF4
aI3
aI2
aF27.899999999999999
aS'0'
aS'0'
aI1
aS'0'
aF29.881137667304014
aI0
aI0
aF27.720800000000001
aS'0'
aS'1'
aI3
aS'0'
aF29.881137667304014
aI1
aI1
aF15.245799999999999
aS'0'
aS'1'
aI2
aS'1'
aF29
aI0
aI0
aF10.5
aS'0'
aS'0'
aI3
aS'0'
aF19
aI0
aI0
aF8.1583000000000006
aS'0'
aS'0'
aI3
aS'1'
aF17
aI4
aI2
aF7.9249999999999998
aS'0'
aS'0'
aI3
aS'0'
aF26
aI2
aI0
aF8.6624999999999996
aS'0'
aS'0'
aI2
aS'0'
aF32
aI0
aI0
aF10.5
aS'0'
aS'0'
aI3
aS'1'
aF16
aI5
aI2
aF46.899999999999999
aS'0'
aS'0'
aI2
aS'0'
aF21
aI0
aI0
aF73.5
aS'0'
aS'0'
aI3
aS'0'
aF26
aI1
aI0
aF14.4542
aS'0'
aS'1'
aI3
aS'0'
aF32
aI0
aI0
aF56.495800000000003
aS'0'
aS'0'
aI3
aS'0'
aF25
aI0
aI0
aF7.6500000000000004
aS'0'
aS'0'
aI3
aS'0'
aF29.881137667304014
aI0
aI0
aF7.8958000000000004
aS'0'
aS'0'
aI3
aS'0'
aF29.881137667304014
aI0
aI0
aF8.0500000000000007
aS'0'
aS'0'
aI2
aS'0'
aF0.82999999999999996
aI0
aI2
aF29
aS'0'
aS'0'
aI3
aS'1'
aF30
aI0
aI0
aF12.475
aS'0'
aS'0'
aI3
aS'0'
aF22
aI0
aI0
aF9
aS'0'
aS'0'
aI3
aS'0'
aF29
aI0
aI0
aF9.5
aS'0'
aS'0'
aI3
aS'1'
aF29.881137667304014
aI0
aI0
aF7.7874999999999996
aS'1'
aS'0'
aI1
aS'0'
aF28
aI0
aI0
aF47.100000000000001
aS'0'
aS'0'
aI2
aS'1'
aF17
aI0
aI0
aF10.5
aS'0'
aS'0'
aI3
aS'1'
aF33
aI3
aI0
aF15.85
aS'0'
aS'0'
aI3
aS'0'
aF16
aI1
aI3
aF34.375
aS'0'
aS'0'
aI3
aS'0'
aF29.881137667304014
aI0
aI0
aF8.0500000000000007
aS'0'
aS'0'
aI1
aS'1'
aF23
aI3
aI2
aF263
aS'0'
aS'0'
aI3
aS'0'
aF24
aI0
aI0
aF8.0500000000000007
aS'0'
aS'0'
aI3
aS'0'
aF29
aI0
aI0
aF8.0500000000000007
aS'0'
aS'0'
aI3
aS'0'
aF20
aI0
aI0
aF7.8541999999999996
aS'0'
aS'0'
aI1
aS'0'
aF46
aI1
aI0
aF61.174999999999997
aS'0'
aS'0'
aI3
aS'0'
aF26
aI1
aI2
aF20.574999999999999
aS'0'
aS'0'
aI3
aS'0'
aF59
aI0
aI0
aF7.25
aS'0'
aS'0'
aI3
aS'0'
aF29.881137667304014
aI0
aI0
aF8.0500000000000007
aS'0'
aS'0'
aI1
aS'0'
aF71
aI0
aI0
aF34.654200000000003
aS'0'
aS'1'
aI1
aS'0'
aF23
aI0
aI1
aF63.3583
aS'0'
aS'1'
aI2
aS'1'
aF34
aI0
aI1
aF23
aS'0'
aS'0'
aI2
aS'0'
aF34
aI1
aI0
aF26
aS'0'
aS'0'
aI3
aS'1'
aF28
aI0
aI0
aF7.8958000000000004
aS'0'
aS'0'
aI3
aS'0'
aF29.881137667304014
aI0
aI0
aF7.8958000000000004
aS'0'
aS'0'
aI1
aS'0'
aF21
aI0
aI1
aF77.287499999999994
aS'0'
aS'0'
aI3
aS'0'
aF33
aI0
aI0
aF8.6541999999999994
aS'0'
aS'0'
aI3
aS'0'
aF37
aI2
aI0
aF7.9249999999999998
aS'0'
aS'0'
aI3
aS'0'
aF28
aI0
aI0
aF7.8958000000000004
aS'0'
aS'0'
aI3
aS'1'
aF21
aI0
aI0
aF7.6500000000000004
aS'0'
aS'0'
aI3
aS'0'
aF29.881137667304014
aI0
aI0
aF7.7750000000000004
aS'0'
aS'0'
aI3
aS'0'
aF38
aI0
aI0
aF7.8958000000000004
aS'0'
aS'0'
aI3
aS'1'
aF29.881137667304014
aI1
aI0
aF24.149999999999999
aS'1'
aS'0'
aI1
aS'0'
aF47
aI0
aI0
aF52
aS'0'
aS'0'
aI3
aS'1'
aF14.5
aI1
aI0
aF14.4542
aS'0'
aS'1'
aI3
aS'0'
aF22
aI0
aI0
aF8.0500000000000007
aS'0'
aS'0'
aI3
aS'1'
aF20
aI1
aI0
aF9.8249999999999993
aS'0'
aS'0'
aI3
aS'1'
aF17
aI0
aI0
aF14.458299999999999
aS'0'
aS'1'
aI3
aS'0'
aF21
aI0
aI0
aF7.9249999999999998
aS'0'
aS'0'
aI3
aS'0'
aF70.5
aI0
aI0
aF7.75
aS'1'
aS'0'
aI2
aS'0'
aF29
aI1
aI0
aF21
aS'0'
aS'0'
aI1
aS'0'
aF24
aI0
aI1
aF247.52080000000001
aS'0'
aS'1'
aI3
aS'1'
aF2
aI4
aI2
aF31.274999999999999
aS'0'
aS'0'
aI2
aS'0'
aF21
aI2
aI0
aF73.5
aS'0'
aS'0'
aI3
aS'0'
aF29.881137667304014
aI0
aI0
aF8.0500000000000007
aS'0'
aS'0'
aI2
aS'0'
aF32.5
aI1
aI0
aF30.070799999999998
aS'0'
aS'1'
aI2
aS'1'
aF32.5
aI0
aI0
aF13
aS'0'
aS'0'
aI1
aS'0'
aF54
aI0
aI1
aF77.287499999999994
aS'0'
aS'0'
aI3
aS'0'
aF12
aI1
aI0
aF11.2417
aS'0'
aS'1'
aI3
aS'0'
aF29.881137667304014
aI0
aI0
aF7.75
aS'1'
aS'0'
aI3
aS'0'
aF24
aI0
aI0
aF7.1417000000000002
aS'0'
aS'0'
aI3
aS'1'
aF29.881137667304014
aI1
aI1
aF22.3583
aS'0'
aS'1'
aI3
aS'0'
aF45
aI0
aI0
aF6.9749999999999996
aS'0'
aS'0'
aI3
aS'0'
aF33
aI0
aI0
aF7.8958000000000004
aS'0'
aS'1'
aI3
aS'0'
aF20
aI0
aI0
aF7.0499999999999998
aS'0'
aS'0'
aI3
aS'1'
aF47
aI1
aI0
aF14.5
aS'0'
aS'0'
aI2
aS'1'
aF29
aI1
aI0
aF26
aS'0'
aS'0'
aI2
aS'0'
aF25
aI0
aI0
aF13
aS'0'
aS'0'
aI2
aS'0'
aF23
aI0
aI0
aF15.0458
aS'0'
aS'1'
aI1
aS'1'
aF19
aI0
aI2
aF26.283300000000001
aS'0'
aS'0'
aI1
aS'0'
aF37
aI1
aI0
aF53.100000000000001
aS'0'
aS'0'
aI3
aS'0'
aF16
aI0
aI0
aF9.2166999999999994
aS'0'
aS'0'
aI1
aS'0'
aF24
aI0
aI0
aF79.200000000000003
aS'0'
aS'1'
aI3
aS'1'
aF29.881137667304014
aI0
aI2
aF15.245799999999999
aS'0'
aS'1'
aI3
aS'1'
aF22
aI0
aI0
aF7.75
aS'0'
aS'0'
aI3
aS'1'
aF24
aI1
aI0
aF15.85
aS'0'
aS'0'
aI3
aS'0'
aF19
aI0
aI0
aF6.75
aS'1'
aS'0'
aI2
aS'0'
aF18
aI0
aI0
aF11.5
aS'0'
aS'0'
aI2
aS'0'
aF19
aI1
aI1
aF36.75
aS'0'
aS'0'
aI3
aS'0'
aF27
aI0
aI0
aF7.7957999999999998
aS'0'
aS'0'
aI3
aS'1'
aF9
aI2
aI2
aF34.375
aS'0'
aS'0'
aI2
aS'0'
aF36.5
aI0
aI2
aF26
aS'0'
aS'0'
aI2
aS'0'
aF42
aI0
aI0
aF13
aS'0'
aS'0'
aI2
aS'0'
aF51
aI0
aI0
aF12.525
aS'0'
aS'0'
aI1
aS'1'
aF22
aI1
aI0
aF66.599999999999994
aS'0'
aS'0'
aI3
aS'0'
aF55.5
aI0
aI0
aF8.0500000000000007
aS'0'
aS'0'
aI3
aS'0'
aF40.5
aI0
aI2
aF14.5
aS'0'
aS'0'
aI3
aS'0'
aF29.881137667304014
aI0
aI0
aF7.3125
aS'0'
aS'0'
aI1
aS'0'
aF51
aI0
aI1
aF61.379199999999997
aS'0'
aS'1'
aI3
aS'1'
aF16
aI0
aI0
aF7.7332999999999998
aS'1'
aS'0'
aI3
aS'0'
aF30
aI0
aI0
aF8.0500000000000007
aS'0'
aS'0'
aI3
aS'0'
aF29.881137667304014
aI0
aI0
aF8.6624999999999996
aS'0'
aS'0'
aI3
aS'0'
aF29.881137667304014
aI8
aI2
aF69.549999999999997
aS'0'
aS'0'
aI3
aS'0'
aF44
aI0
aI1
aF16.100000000000001
aS'0'
aS'0'
aI2
aS'1'
aF40
aI0
aI0
aF15.75
aS'0'
aS'0'
aI3
aS'0'
aF26
aI0
aI0
aF7.7750000000000004
aS'0'
aS'0'
aI3
aS'0'
aF17
aI0
aI0
aF8.6624999999999996
aS'0'
aS'0'
aI3
aS'0'
aF1
aI4
aI1
aF39.6875
aS'0'
aS'0'
aI3
aS'0'
aF9
aI0
aI2
aF20.524999999999999
aS'0'
aS'0'
aI1
aS'1'
aF29.881137667304014
aI0
aI1
aF55
aS'0'
aS'0'
aI3
aS'1'
aF45
aI1
aI4
aF27.899999999999999
aS'0'
aS'0'
aI1
aS'0'
aF29.881137667304014
aI0
aI0
aF25.925000000000001
aS'0'
aS'0'
aI3
aS'0'
aF28
aI0
aI0
aF56.495800000000003
aS'0'
aS'0'
aI1
aS'0'
aF61
aI0
aI0
aF33.5
aS'0'
aS'0'
aI3
aS'0'
aF4
aI4
aI1
aF29.125
aS'1'
aS'0'
aI3
aS'1'
aF1
aI1
aI1
aF11.1333
aS'0'
aS'0'
aI3
aS'0'
aF21
aI0
aI0
aF7.9249999999999998
aS'0'
aS'0'
aI1
aS'0'
aF56
aI0
aI0
aF30.695799999999998
aS'0'
aS'1'
aI3
aS'0'
aF18
aI1
aI1
aF7.8541999999999996
aS'0'
aS'0'
aI3
aS'0'
aF29.881137667304014
aI3
aI1
aF25.466699999999999
aS'0'
aS'0'
aI1
aS'1'
aF50
aI0
aI0
aF28.712499999999999
aS'0'
aS'1'
aI2
aS'0'
aF30
aI0
aI0
aF13
aS'0'
aS'0'
aI3
aS'0'
aF36
aI0
aI0
aF0
aS'0'
aS'0'
aI3
aS'1'
aF29.881137667304014
aI8
aI2
aF69.549999999999997
aS'0'
aS'0'
aI2
aS'0'
aF29.881137667304014
aI0
aI0
aF15.050000000000001
aS'0'
aS'1'
aI3
aS'0'
aF9
aI4
aI2
aF31.387499999999999
aS'0'
aS'0'
aI2
aS'0'
aF1
aI2
aI1
aF39
aS'0'
aS'0'
aI3
aS'1'
aF4
aI0
aI2
aF22.024999999999999
aS'0'
aS'0'
aI1
aS'0'
aF29.881137667304014
aI0
aI0
aF50
aS'0'
aS'0'
aI3
aS'1'
aF29.881137667304014
aI1
aI0
aF15.5
aS'1'
aS'0'
aI1
aS'0'
aF45
aI0
aI0
aF26.550000000000001
aS'0'
aS'0'
aI3
aS'0'
aF40
aI1
aI1
aF15.5
aS'1'
aS'0'
aI3
aS'0'
aF36
aI0
aI0
aF7.8958000000000004
aS'0'
aS'0'
aI2
aS'1'
aF32
aI0
aI0
aF13
aS'0'
aS'0'
aI2
aS'0'
aF19
aI0
aI0
aF13
aS'0'
aS'0'
aI3
aS'1'
aF19
aI1
aI0
aF7.8541999999999996
aS'0'
aS'0'
aI2
aS'0'
aF3
aI1
aI1
aF26
aS'0'
aS'0'
aI1
aS'1'
aF44
aI0
aI0
aF27.720800000000001
aS'0'
aS'1'
aI1
aS'1'
aF58
aI0
aI0
aF146.52080000000001
aS'0'
aS'1'
aI3
aS'0'
aF29.881137667304014
aI0
aI0
aF7.75
aS'1'
aS'0'
aI3
aS'0'
aF42
aI0
aI1
aF8.4041999999999994
aS'0'
aS'0'
aI3
aS'1'
aF29.881137667304014
aI0
aI0
aF7.75
aS'1'
aS'0'
aI2
aS'1'
aF24
aI0
aI0
aF13
aS'0'
aS'0'
aI3
aS'0'
aF28
aI0
aI0
aF9.5
aS'0'
aS'0'
aI3
aS'0'
aF29.881137667304014
aI8
aI2
aF69.549999999999997
aS'0'
aS'0'
aI3
aS'0'
aF34
aI0
aI0
aF6.4958
aS'0'
aS'0'
aI3
aS'0'
aF45.5
aI0
aI0
aF7.2249999999999996
aS'0'
aS'1'
aI3
aS'0'
aF18
aI0
aI0
aF8.0500000000000007
aS'0'
aS'0'
aI3
aS'1'
aF2
aI0
aI1
aF10.4625
aS'0'
aS'0'
aI3
aS'0'
aF32
aI1
aI0
aF15.85
aS'0'
aS'0'
aI3
aS'0'
aF26
aI0
aI0
aF18.787500000000001
aS'0'
aS'1'
aI3
aS'1'
aF16
aI0
aI0
aF7.75
aS'1'
aS'0'
aI1
aS'0'
aF40
aI0
aI0
aF31
aS'0'
aS'1'
aI3
aS'0'
aF24
aI0
aI0
aF7.0499999999999998
aS'0'
aS'0'
aI2
aS'1'
aF35
aI0
aI0
aF21
aS'0'
aS'0'
aI3
aS'0'
aF22
aI0
aI0
aF7.25
aS'0'
aS'0'
aI2
aS'0'
aF30
aI0
aI0
aF13
aS'0'
aS'0'
aI3
aS'0'
aF29.881137667304014
aI1
aI0
aF7.75
aS'1'
aS'0'
aI1
aS'1'
aF31
aI1
aI0
aF113.27500000000001
aS'0'
aS'1'
aI3
aS'1'
aF27
aI0
aI0
aF7.9249999999999998
aS'0'
aS'0'
aI2
aS'0'
aF42
aI1
aI0
aF27
aS'0'
aS'0'
aI1
aS'1'
aF32
aI0
aI0
aF76.291700000000006
aS'0'
aS'1'
aI2
aS'0'
aF30
aI0
aI0
aF10.5
aS'0'
aS'0'
aI3
aS'0'
aF16
aI0
aI0
aF8.0500000000000007
aS'0'
aS'0'
aI2
aS'0'
aF27
aI0
aI0
aF13
aS'0'
aS'0'
aI3
aS'0'
aF51
aI0
aI0
aF8.0500000000000007
aS'0'
aS'0'
aI3
aS'0'
aF29.881137667304014
aI0
aI0
aF7.8958000000000004
aS'0'
aS'0'
aI1
aS'0'
aF38
aI1
aI0
aF90
aS'0'
aS'0'
aI3
aS'0'
aF22
aI0
aI0
aF9.3499999999999996
aS'0'
aS'0'
aI2
aS'0'
aF19
aI0
aI0
aF10.5
aS'0'
aS'0'
aI3
aS'0'
aF20.5
aI0
aI0
aF7.25
aS'0'
aS'0'
aI2
aS'0'
aF18
aI0
aI0
aF13
aS'0'
aS'0'
aI3
aS'1'
aF29.881137667304014
aI3
aI1
aF25.466699999999999
aS'0'
aS'0'
aI1
aS'1'
aF35
aI1
aI0
aF83.474999999999994
aS'0'
aS'0'
aI3
aS'0'
aF29
aI0
aI0
aF7.7750000000000004
aS'0'
aS'0'
aI2
aS'0'
aF59
aI0
aI0
aF13.5
aS'0'
aS'0'
aI3
aS'1'
aF5
aI4
aI2
aF31.387499999999999
aS'0'
aS'0'
aI2
aS'0'
aF24
aI0
aI0
aF10.5
aS'0'
aS'0'
aI3
aS'1'
aF29.881137667304014
aI0
aI0
aF7.5499999999999998
aS'0'
aS'0'
aI2
aS'0'
aF44
aI1
aI0
aF26
aS'0'
aS'0'
aI2
aS'1'
aF8
aI0
aI2
aF26.25
aS'0'
aS'0'
aI2
aS'0'
aF19
aI0
aI0
aF10.5
aS'0'
aS'0'
aI2
aS'0'
aF33
aI0
aI0
aF12.275
aS'0'
aS'0'
aI3
aS'1'
aF29.881137667304014
aI1
aI0
aF14.4542
aS'0'
aS'1'
aI3
aS'1'
aF29.881137667304014
aI1
aI0
aF15.5
aS'1'
aS'0'
aI2
aS'0'
aF29
aI0
aI0
aF10.5
aS'0'
aS'0'
aI3
aS'0'
aF22
aI0
aI0
aF7.125
aS'0'
aS'0'
aI3
aS'0'
aF30
aI0
aI0
aF7.2249999999999996
aS'0'
aS'1'
aI1
aS'0'
aF44
aI2
aI0
aF90
aS'1'
aS'0'
aI3
aS'1'
aF25
aI0
aI0
aF7.7750000000000004
aS'0'
aS'0'
aI2
aS'1'
aF24
aI0
aI2
aF14.5
aS'0'
aS'0'
aI1
aS'0'
aF37
aI1
aI1
aF52.554200000000002
aS'0'
aS'0'
aI2
aS'0'
aF54
aI1
aI0
aF26
aS'0'
aS'0'
aI3
aS'0'
aF29.881137667304014
aI0
aI0
aF7.25
aS'0'
aS'0'
aI3
aS'1'
aF29
aI1
aI1
aF10.4625
aS'0'
aS'0'
aI1
aS'0'
aF62
aI0
aI0
aF26.550000000000001
aS'0'
aS'0'
aI3
aS'0'
aF30
aI1
aI0
aF16.100000000000001
aS'0'
aS'0'
aI3
aS'1'
aF41
aI0
aI2
aF20.212499999999999
aS'0'
aS'0'
aI3
aS'1'
aF29
aI0
aI2
aF15.245799999999999
aS'0'
aS'1'
aI1
aS'1'
aF29.881137667304014
aI0
aI0
aF79.200000000000003
aS'0'
aS'1'
aI1
aS'1'
aF30
aI0
aI0
aF86.5
aS'0'
aS'0'
aI1
aS'1'
aF35
aI0
aI0
aF512.32920000000001
aS'0'
aS'1'
aI2
aS'1'
aF50
aI0
aI1
aF26
aS'0'
aS'0'
aI3
aS'0'
aF29.881137667304014
aI0
aI0
aF7.75
aS'1'
aS'0'
aI3
aS'0'
aF3
aI4
aI2
aF31.387499999999999
aS'0'
aS'0'
aI1
aS'0'
aF52
aI1
aI1
aF79.650000000000006
aS'0'
aS'0'
aI1
aS'0'
aF40
aI0
aI0
aF0
aS'0'
aS'0'
aI3
aS'1'
aF29.881137667304014
aI0
aI0
aF7.75
aS'1'
aS'0'
aI2
aS'0'
aF36
aI0
aI0
aF10.5
aS'0'
aS'0'
aI3
aS'0'
aF16
aI4
aI1
aF39.6875
aS'0'
aS'0'
aI3
aS'0'
aF25
aI1
aI0
aF7.7750000000000004
aS'0'
aS'0'
aI1
aS'1'
aF58
aI0
aI1
aF153.46250000000001
aS'0'
aS'0'
aI1
aS'1'
aF35
aI0
aI0
aF135.63329999999999
aS'0'
aS'0'
aI1
aS'0'
aF29.881137667304014
aI0
aI0
aF31
aS'0'
aS'0'
aI3
aS'0'
aF25
aI0
aI0
aF0
aS'0'
aS'0'
aI2
aS'1'
aF41
aI0
aI1
aF19.5
aS'0'
aS'0'
aI1
aS'0'
aF37
aI0
aI1
aF29.699999999999999
aS'0'
aS'1'
aI3
aS'1'
aF29.881137667304014
aI0
aI0
aF7.75
aS'1'
aS'0'
aI1
aS'1'
aF63
aI1
aI0
aF77.958299999999994
aS'0'
aS'0'
aI3
aS'1'
aF45
aI0
aI0
aF7.75
aS'0'
aS'0'
aI2
aS'0'
aF29.881137667304014
aI0
aI0
aF0
aS'0'
aS'0'
aI3
aS'0'
aF7
aI4
aI1
aF29.125
aS'1'
aS'0'
aI3
aS'1'
aF35
aI1
aI1
aF20.25
aS'0'
aS'0'
aI3
aS'0'
aF65
aI0
aI0
aF7.75
aS'1'
aS'0'
aI3
aS'0'
aF28
aI0
aI0
aF7.8541999999999996
aS'0'
aS'0'
aI3
aS'0'
aF16
aI0
aI0
aF9.5
aS'0'
aS'0'
aI3
aS'0'
aF19
aI0
aI0
aF8.0500000000000007
aS'0'
aS'0'
aI1
aS'0'
aF29.881137667304014
aI0
aI0
aF26
aS'0'
aS'0'
aI3
aS'0'
aF33
aI0
aI0
aF8.6624999999999996
aS'0'
aS'1'
aI3
aS'0'
aF30
aI0
aI0
aF9.5
aS'0'
aS'0'
aI3
aS'0'
aF22
aI0
aI0
aF7.8958000000000004
aS'0'
aS'0'
aI2
aS'0'
aF42
aI0
aI0
aF13
aS'0'
aS'0'
aI3
aS'1'
aF22
aI0
aI0
aF7.75
aS'1'
aS'0'
aI1
aS'1'
aF26
aI0
aI0
aF78.849999999999994
aS'0'
aS'0'
aI1
aS'1'
aF19
aI1
aI0
aF91.0792
aS'0'
aS'1'
aI2
aS'0'
aF36
aI0
aI0
aF12.875
aS'0'
aS'1'
aI3
aS'1'
aF24
aI0
aI0
aF8.8499999999999996
aS'0'
aS'0'
aI3
aS'0'
aF24
aI0
aI0
aF7.8958000000000004
aS'0'
aS'0'
aI1
aS'0'
aF29.881137667304014
aI0
aI0
aF27.720800000000001
aS'0'
aS'1'
aI3
aS'0'
aF23.5
aI0
aI0
aF7.2291999999999996
aS'0'
aS'1'
aI1
aS'1'
aF2
aI1
aI2
aF151.55000000000001
aS'0'
aS'0'
aI1
aS'0'
aF29.881137667304014
aI0
aI0
aF30.5
aS'0'
aS'0'
aI1
aS'1'
aF50
aI0
aI1
aF247.52080000000001
aS'0'
aS'1'
aI3
aS'1'
aF29.881137667304014
aI0
aI0
aF7.75
aS'1'
aS'0'
aI3
aS'0'
aF29.881137667304014
aI2
aI0
aF23.25
aS'1'
aS'0'
aI3
aS'0'
aF19
aI0
aI0
aF0
aS'0'
aS'0'
aI2
aS'1'
aF29.881137667304014
aI0
aI0
aF12.35
aS'1'
aS'0'
aI3
aS'0'
aF29.881137667304014
aI0
aI0
aF8.0500000000000007
aS'0'
aS'0'
aI1
aS'0'
aF0.92000000000000004
aI1
aI2
aF151.55000000000001
aS'0'
aS'0'
aI1
aS'1'
aF29.881137667304014
aI0
aI0
aF110.88330000000001
aS'0'
aS'1'
aI1
aS'1'
aF17
aI1
aI0
aF108.90000000000001
aS'0'
aS'1'
aI2
aS'0'
aF30
aI1
aI0
aF24
aS'0'
aS'1'
aI1
aS'1'
aF30
aI0
aI0
aF56.929200000000002
aS'0'
aS'1'
aI1
aS'1'
aF24
aI0
aI0
aF83.158299999999997
aS'0'
aS'1'
aI1
aS'1'
aF18
aI2
aI2
aF262.375
aS'0'
aS'1'
aI2
aS'1'
aF26
aI1
aI1
aF26
aS'0'
aS'0'
aI3
aS'0'
aF28
aI0
aI0
aF7.8958000000000004
aS'0'
aS'0'
aI2
aS'0'
aF43
aI1
aI1
aF26.25
aS'0'
aS'0'
aI3
aS'1'
aF26
aI0
aI0
aF7.8541999999999996
aS'0'
aS'0'
aI2
aS'1'
aF24
aI1
aI0
aF26
aS'0'
aS'0'
aI2
aS'0'
aF54
aI0
aI0
aF14
aS'0'
aS'0'
aI1
aS'1'
aF31
aI0
aI2
aF164.86670000000001
aS'0'
aS'0'
aI1
aS'1'
aF40
aI1
aI1
aF134.5
aS'0'
aS'1'
aI3
aS'0'
aF22
aI0
aI0
aF7.25
aS'0'
aS'0'
aI3
aS'0'
aF27
aI0
aI0
aF7.8958000000000004
aS'0'
aS'0'
aI2
aS'1'
aF30
aI0
aI0
aF12.35
aS'1'
aS'0'
aI2
aS'1'
aF22
aI1
aI1
aF29
aS'0'
aS'0'
aI3
aS'0'
aF29.881137667304014
aI8
aI2
aF69.549999999999997
aS'0'
aS'0'
aI1
aS'1'
aF36
aI0
aI0
aF135.63329999999999
aS'0'
aS'1'
aI3
aS'0'
aF61
aI0
aI0
aF6.2374999999999998
aS'0'
aS'0'
aI2
aS'1'
aF36
aI0
aI0
aF13
aS'0'
aS'0'
aI3
aS'1'
aF31
aI1
aI1
aF20.524999999999999
aS'0'
aS'0'
aI1
aS'1'
aF16
aI0
aI1
aF57.979199999999999
aS'0'
aS'1'
aI3
aS'1'
aF29.881137667304014
aI2
aI0
aF23.25
aS'1'
aS'0'
aI1
aS'0'
aF45.5
aI0
aI0
aF28.5
aS'0'
aS'0'
aI1
aS'0'
aF38
aI0
aI1
aF153.46250000000001
aS'0'
aS'0'
aI3
aS'0'
aF16
aI2
aI0
aF18
aS'0'
aS'0'
aI1
aS'1'
aF29.881137667304014
aI1
aI0
aF133.65000000000001
aS'0'
aS'0'
aI3
aS'0'
aF29.881137667304014
aI0
aI0
aF7.8958000000000004
aS'0'
aS'0'
aI1
aS'0'
aF29
aI1
aI0
aF66.599999999999994
aS'0'
aS'0'
aI1
aS'1'
aF41
aI0
aI0
aF134.5
aS'0'
aS'1'
aI3
aS'0'
aF45
aI0
aI0
aF8.0500000000000007
aS'0'
aS'0'
aI1
aS'0'
aF45
aI0
aI0
aF35.5
aS'0'
aS'0'
aI2
aS'0'
aF2
aI1
aI1
aF26
aS'0'
aS'0'
aI1
aS'1'
aF24
aI3
aI2
aF263
aS'0'
aS'0'
aI2
aS'0'
aF28
aI0
aI0
aF13
aS'0'
aS'0'
aI2
aS'0'
aF25
aI0
aI0
aF13
aS'0'
aS'0'
aI2
aS'0'
aF36
aI0
aI0
aF13
aS'0'
aS'0'
aI2
aS'1'
aF24
aI0
aI0
aF13
aS'0'
aS'0'
aI2
aS'1'
aF40
aI0
aI0
aF13
aS'0'
aS'0'
aI3
aS'1'
aF29.881137667304014
aI1
aI0
aF16.100000000000001
aS'0'
aS'0'
aI3
aS'0'
aF3
aI1
aI1
aF15.9
aS'0'
aS'0'
aI3
aS'0'
aF42
aI0
aI0
aF8.6624999999999996
aS'0'
aS'0'
aI3
aS'0'
aF23
aI0
aI0
aF9.2249999999999996
aS'0'
aS'0'
aI1
aS'0'
aF29.881137667304014
aI0
aI0
aF35
aS'0'
aS'0'
aI3
aS'0'
aF15
aI1
aI1
aF7.2291999999999996
aS'0'
aS'1'
aI3
aS'0'
aF25
aI1
aI0
aF17.800000000000001
aS'0'
aS'0'
aI3
aS'0'
aF29.881137667304014
aI0
aI0
aF7.2249999999999996
aS'0'
aS'1'
aI3
aS'0'
aF28
aI0
aI0
aF9.5
aS'0'
aS'0'
aI1
aS'1'
aF22
aI0
aI1
aF55
aS'0'
aS'0'
aI2
aS'1'
aF38
aI0
aI0
aF13
aS'0'
aS'0'
aI3
aS'1'
aF29.881137667304014
aI0
aI0
aF7.8792
aS'1'
aS'0'
aI3
aS'1'
aF29.881137667304014
aI0
aI0
aF7.8792
aS'1'
aS'0'
aI3
aS'0'
aF40
aI1
aI4
aF27.899999999999999
aS'0'
aS'0'
aI2
aS'0'
aF29
aI1
aI0
aF27.720800000000001
aS'0'
aS'1'
aI3
aS'1'
aF45
aI0
aI1
aF14.4542
aS'0'
aS'1'
aI3
aS'0'
aF35
aI0
aI0
aF7.0499999999999998
aS'0'
aS'0'
aI3
aS'0'
aF29.881137667304014
aI1
aI0
aF15.5
aS'1'
aS'0'
aI3
aS'0'
aF30
aI0
aI0
aF7.25
aS'0'
aS'0'
aI1
aS'1'
aF60
aI1
aI0
aF75.25
aS'0'
aS'1'
aI3
aS'1'
aF29.881137667304014
aI0
aI0
aF7.2291999999999996
aS'0'
aS'1'
aI3
aS'1'
aF29.881137667304014
aI0
aI0
aF7.75
aS'1'
aS'0'
aI1
aS'1'
aF24
aI0
aI0
aF69.299999999999997
aS'0'
aS'1'
aI1
aS'0'
aF25
aI1
aI0
aF55.441699999999997
aS'0'
aS'1'
aI3
aS'0'
aF18
aI1
aI0
aF6.4958
aS'0'
aS'0'
aI3
aS'0'
aF19
aI0
aI0
aF8.0500000000000007
aS'0'
aS'0'
aI1
aS'0'
aF22
aI0
aI0
aF135.63329999999999
aS'0'
aS'1'
aI3
aS'1'
aF3
aI3
aI1
aF21.074999999999999
aS'0'
aS'0'
aI1
aS'1'
aF29.881137667304014
aI1
aI0
aF82.1708
aS'0'
aS'1'
aI3
aS'1'
aF22
aI0
aI0
aF7.25
aS'0'
aS'0'
aI1
aS'0'
aF27
aI0
aI2
aF211.5
aS'0'
aS'1'
aI3
aS'0'
aF20
aI0
aI0
aF4.0125000000000002
aS'0'
aS'1'
aI3
aS'0'
aF19
aI0
aI0
aF7.7750000000000004
aS'0'
aS'0'
aI1
aS'1'
aF42
aI0
aI0
aF227.52500000000001
aS'0'
aS'1'
aI3
aS'1'
aF1
aI0
aI2
aF15.7417
aS'0'
aS'1'
aI3
aS'0'
aF32
aI0
aI0
aF7.9249999999999998
aS'0'
aS'0'
aI1
aS'1'
aF35
aI1
aI0
aF52
aS'0'
aS'0'
aI3
aS'0'
aF29.881137667304014
aI0
aI0
aF7.8958000000000004
aS'0'
aS'0'
aI2
aS'0'
aF18
aI0
aI0
aF73.5
aS'0'
aS'0'
aI3
aS'0'
aF1
aI5
aI2
aF46.899999999999999
aS'0'
aS'0'
aI2
aS'1'
aF36
aI0
aI0
aF13
aS'0'
aS'0'
aI3
aS'0'
aF29.881137667304014
aI0
aI0
aF7.7291999999999996
aS'1'
aS'0'
aI2
aS'1'
aF17
aI0
aI0
aF12
aS'0'
aS'1'
aI1
aS'0'
aF36
aI1
aI2
aF120
aS'0'
aS'0'
aI3
aS'0'
aF21
aI0
aI0
aF7.7957999999999998
aS'0'
aS'0'
aI3
aS'0'
aF28
aI2
aI0
aF7.9249999999999998
aS'0'
aS'0'
aI1
aS'1'
aF23
aI1
aI0
aF113.27500000000001
aS'0'
aS'1'
aI3
aS'1'
aF24
aI0
aI2
aF16.699999999999999
aS'0'
aS'0'
aI3
aS'0'
aF22
aI0
aI0
aF7.7957999999999998
aS'0'
aS'0'
aI3
aS'1'
aF31
aI0
aI0
aF7.8541999999999996
aS'0'
aS'0'
aI2
aS'0'
aF46
aI0
aI0
aF26
aS'0'
aS'0'
aI2
aS'0'
aF23
aI0
aI0
aF10.5
aS'0'
aS'0'
aI2
aS'1'
aF28
aI0
aI0
aF12.65
aS'0'
aS'0'
aI3
aS'0'
aF39
aI0
aI0
aF7.9249999999999998
aS'0'
aS'0'
aI3
aS'0'
aF26
aI0
aI0
aF8.0500000000000007
aS'0'
aS'0'
aI3
aS'1'
aF21
aI1
aI0
aF9.8249999999999993
aS'0'
aS'0'
aI3
aS'0'
aF28
aI1
aI0
aF15.85
aS'0'
aS'0'
aI3
aS'1'
aF20
aI0
aI0
aF8.6624999999999996
aS'0'
aS'0'
aI2
aS'0'
aF34
aI1
aI0
aF21
aS'0'
aS'0'
aI3
aS'0'
aF51
aI0
aI0
aF7.75
aS'0'
aS'0'
aI2
aS'0'
aF3
aI1
aI1
aF18.75
aS'0'
aS'0'
aI3
aS'0'
aF21
aI0
aI0
aF7.7750000000000004
aS'0'
aS'0'
aI3
aS'1'
aF29.881137667304014
aI3
aI1
aF25.466699999999999
aS'0'
aS'0'
aI3
aS'0'
aF29.881137667304014
aI0
aI0
aF7.8958000000000004
aS'0'
aS'0'
aI3
aS'0'
aF29.881137667304014
aI0
aI0
aF6.8582999999999998
aS'1'
aS'0'
aI1
aS'1'
aF33
aI1
aI0
aF90
aS'1'
aS'0'
aI2
aS'0'
aF29.881137667304014
aI0
aI0
aF0
aS'0'
aS'0'
aI3
aS'0'
aF44
aI0
aI0
aF7.9249999999999998
aS'0'
aS'0'
aI3
aS'1'
aF29.881137667304014
aI0
aI0
aF8.0500000000000007
aS'0'
aS'0'
aI2
aS'1'
aF34
aI1
aI1
aF32.5
aS'0'
aS'0'
aI2
aS'1'
aF18
aI0
aI2
aF13
aS'0'
aS'0'
aI2
aS'0'
aF30
aI0
aI0
aF13
aS'0'
aS'0'
aI3
aS'1'
aF10
aI0
aI2
aF24.149999999999999
aS'0'
aS'0'
aI3
aS'0'
aF29.881137667304014
aI0
aI0
aF7.8958000000000004
aS'0'
aS'1'
aI3
aS'0'
aF21
aI0
aI0
aF7.7332999999999998
aS'1'
aS'0'
aI3
aS'0'
aF29
aI0
aI0
aF7.875
aS'0'
aS'0'
aI3
aS'1'
aF28
aI1
aI1
aF14.4
aS'0'
aS'0'
aI3
aS'0'
aF18
aI1
aI1
aF20.212499999999999
aS'0'
aS'0'
aI3
aS'0'
aF29.881137667304014
aI0
aI0
aF7.25
aS'0'
aS'0'
aI2
aS'1'
aF28
aI1
aI0
aF26
aS'0'
aS'0'
aI2
aS'1'
aF19
aI0
aI0
aF26
aS'0'
aS'0'
aI3
aS'0'
aF29.881137667304014
aI0
aI0
aF7.75
aS'1'
aS'0'
aI3
aS'0'
aF32
aI0
aI0
aF8.0500000000000007
aS'0'
aS'0'
aI1
aS'0'
aF28
aI0
aI0
aF26.550000000000001
aS'0'
aS'0'
aI3
aS'1'
aF29.881137667304014
aI1
aI0
aF16.100000000000001
aS'0'
aS'0'
aI2
aS'1'
aF42
aI1
aI0
aF26
aS'0'
aS'0'
aI3
aS'0'
aF17
aI0
aI0
aF7.125
aS'0'
aS'0'
aI1
aS'0'
aF50
aI1
aI0
aF55.899999999999999
aS'0'
aS'0'
aI1
aS'1'
aF14
aI1
aI2
aF120
aS'0'
aS'0'
aI3
aS'1'
aF21
aI2
aI2
aF34.375
aS'0'
aS'0'
aI2
aS'1'
aF24
aI2
aI3
aF18.75
aS'0'
aS'0'
aI1
aS'0'
aF64
aI1
aI4
aF263
aS'0'
aS'0'
aI2
aS'0'
aF31
aI0
aI0
aF10.5
aS'0'
aS'0'
aI2
aS'1'
aF45
aI1
aI1
aF26.25
aS'0'
aS'0'
aI3
aS'0'
aF20
aI0
aI0
aF9.5
aS'0'
aS'0'
aI3
aS'0'
aF25
aI1
aI0
aF7.7750000000000004
aS'0'
aS'0'
aI2
aS'1'
aF28
aI0
aI0
aF13
aS'0'
aS'0'
aI3
aS'0'
aF29.881137667304014
aI0
aI0
aF8.1125000000000007
aS'0'
aS'0'
aI1
aS'0'
aF4
aI0
aI2
aF81.8583
aS'0'
aS'0'
aI2
aS'1'
aF13
aI0
aI1
aF19.5
aS'0'
aS'0'
aI1
aS'0'
aF34
aI0
aI0
aF26.550000000000001
aS'0'
aS'0'
aI3
aS'1'
aF5
aI2
aI1
aF19.258299999999998
aS'0'
aS'1'
aI1
aS'0'
aF52
aI0
aI0
aF30.5
aS'0'
aS'0'
aI2
aS'0'
aF36
aI1
aI2
aF27.75
aS'0'
aS'0'
aI3
aS'0'
aF29.881137667304014
aI1
aI0
aF19.966699999999999
aS'0'
aS'0'
aI1
aS'0'
aF30
aI0
aI0
aF27.75
aS'0'
aS'1'
aI1
aS'0'
aF49
aI1
aI0
aF89.104200000000006
aS'0'
aS'1'
aI3
aS'0'
aF29.881137667304014
aI0
aI0
aF8.0500000000000007
aS'0'
aS'0'
aI3
aS'0'
aF29
aI0
aI0
aF7.8958000000000004
aS'0'
aS'1'
aI1
aS'0'
aF65
aI0
aI0
aF26.550000000000001
aS'0'
aS'0'
aI1
aS'1'
aF29.881137667304014
aI1
aI0
aF51.862499999999997
aS'0'
aS'0'
aI2
aS'1'
aF50
aI0
aI0
aF10.5
aS'0'
aS'0'
aI3
aS'0'
aF29.881137667304014
aI0
aI0
aF7.75
aS'1'
aS'0'
aI1
aS'0'
aF48
aI0
aI0
aF26.550000000000001
aS'0'
aS'0'
aI3
aS'0'
aF34
aI0
aI0
aF8.0500000000000007
aS'0'
aS'0'
aI1
aS'0'
aF47
aI0
aI0
aF38.5
aS'0'
aS'0'
aI2
aS'0'
aF48
aI0
aI0
aF13
aS'0'
aS'0'
aI3
aS'0'
aF29.881137667304014
aI0
aI0
aF8.0500000000000007
aS'0'
aS'0'
aI3
aS'0'
aF38
aI0
aI0
aF7.0499999999999998
aS'0'
aS'0'
aI2
aS'0'
aF29.881137667304014
aI0
aI0
aF0
aS'0'
aS'0'
aI1
aS'0'
aF56
aI0
aI0
aF26.550000000000001
aS'0'
aS'0'
aI3
aS'0'
aF29.881137667304014
aI0
aI0
aF7.7249999999999996
aS'1'
aS'0'
aI3
aS'1'
aF0.75
aI2
aI1
aF19.258299999999998
aS'0'
aS'1'
aI3
aS'0'
aF29.881137667304014
aI0
aI0
aF7.25
aS'0'
aS'0'
aI3
aS'0'
aF38
aI0
aI0
aF8.6624999999999996
aS'0'
aS'0'
aI2
aS'1'
aF33
aI1
aI2
aF27.75
aS'0'
aS'0'
aI2
aS'1'
aF23
aI0
aI0
aF13.791700000000001
aS'0'
aS'1'
aI3
aS'1'
aF22
aI0
aI0
aF9.8375000000000004
aS'0'
aS'0'
aI1
aS'0'
aF29.881137667304014
aI0
aI0
aF52
aS'0'
aS'0'
aI2
aS'0'
aF34
aI1
aI0
aF21
aS'0'
aS'0'
aI3
aS'0'
aF29
aI1
aI0
aF7.0457999999999998
aS'0'
aS'0'
aI3
aS'0'
aF22
aI0
aI0
aF7.5208000000000004
aS'0'
aS'0'
aI3
aS'1'
aF2
aI0
aI1
aF12.2875
aS'0'
aS'0'
aI3
aS'0'
aF9
aI5
aI2
aF46.899999999999999
aS'0'
aS'0'
aI2
aS'0'
aF29.881137667304014
aI0
aI0
aF0
aS'0'
aS'0'
aI3
aS'0'
aF50
aI0
aI0
aF8.0500000000000007
aS'0'
aS'0'
aI3
aS'1'
aF63
aI0
aI0
aF9.5875000000000004
aS'0'
aS'0'
aI1
aS'0'
aF25
aI1
aI0
aF91.0792
aS'0'
aS'1'
aI3
aS'1'
aF29.881137667304014
aI3
aI1
aF25.466699999999999
aS'0'
aS'0'
aI1
aS'1'
aF35
aI1
aI0
aF90
aS'0'
aS'0'
aI1
aS'0'
aF58
aI0
aI0
aF29.699999999999999
aS'0'
aS'1'
aI3
aS'0'
aF30
aI0
aI0
aF8.0500000000000007
aS'0'
aS'0'
aI3
aS'0'
aF9
aI1
aI1
aF15.9
aS'0'
aS'0'
aI3
aS'0'
aF29.881137667304014
aI1
aI0
aF19.966699999999999
aS'0'
aS'0'
aI3
aS'0'
aF21
aI0
aI0
aF7.25
aS'0'
aS'0'
aI1
aS'0'
aF55
aI0
aI0
aF30.5
aS'0'
aS'0'
aI1
aS'0'
aF71
aI0
aI0
aF49.504199999999997
aS'0'
aS'1'
aI3
aS'0'
aF21
aI0
aI0
aF8.0500000000000007
aS'0'
aS'0'
aI3
aS'0'
aF29.881137667304014
aI0
aI0
aF14.458299999999999
aS'0'
aS'1'
aI1
aS'1'
aF54
aI1
aI0
aF78.2667
aS'0'
aS'1'
aI3
aS'0'
aF29.881137667304014
aI0
aI0
aF15.1
aS'0'
aS'0'
aI1
aS'1'
aF25
aI1
aI2
aF151.55000000000001
aS'0'
aS'0'
aI3
aS'0'
aF24
aI0
aI0
aF7.7957999999999998
aS'0'
aS'0'
aI3
aS'0'
aF17
aI0
aI0
aF8.6624999999999996
aS'0'
aS'0'
aI3
aS'1'
aF21
aI0
aI0
aF7.75
aS'1'
aS'0'
aI3
aS'1'
aF29.881137667304014
aI0
aI0
aF7.6292
aS'1'
aS'0'
aI3
aS'1'
aF37
aI0
aI0
aF9.5875000000000004
aS'0'
aS'0'
aI1
aS'1'
aF16
aI0
aI0
aF86.5
aS'0'
aS'0'
aI1
aS'0'
aF18
aI1
aI0
aF108.90000000000001
aS'0'
aS'1'
aI2
aS'1'
aF33
aI0
aI2
aF26
aS'0'
aS'0'
aI1
aS'0'
aF29.881137667304014
aI0
aI0
aF26.550000000000001
aS'0'
aS'0'
aI3
aS'0'
aF28
aI0
aI0
aF22.524999999999999
aS'0'
aS'0'
aI3
aS'0'
aF26
aI0
aI0
aF56.495800000000003
aS'0'
aS'0'
aI3
aS'0'
aF29
aI0
aI0
aF7.75
aS'1'
aS'0'
aI3
aS'0'
aF29.881137667304014
aI0
aI0
aF8.0500000000000007
aS'0'
aS'0'
aI1
aS'0'
aF36
aI0
aI0
aF26.287500000000001
aS'0'
aS'0'
aI1
aS'1'
aF54
aI1
aI0
aF59.399999999999999
aS'0'
aS'1'
aI3
aS'0'
aF24
aI0
aI0
aF7.4958
aS'0'
aS'0'
aI1
aS'0'
aF47
aI0
aI0
aF34.020800000000001
aS'0'
aS'0'
aI2
aS'1'
aF34
aI0
aI0
aF10.5
aS'0'
aS'0'
aI3
aS'0'
aF29.881137667304014
aI0
aI0
aF24.149999999999999
aS'1'
aS'0'
aI2
aS'1'
aF36
aI1
aI0
aF26
aS'0'
aS'0'
aI3
aS'0'
aF32
aI0
aI0
aF7.8958000000000004
aS'0'
aS'0'
aI1
aS'1'
aF30
aI0
aI0
aF93.5
aS'0'
aS'0'
aI3
aS'0'
aF22
aI0
aI0
aF7.8958000000000004
aS'0'
aS'0'
aI3
aS'0'
aF29.881137667304014
aI0
aI0
aF7.2249999999999996
aS'0'
aS'1'
aI1
aS'1'
aF44
aI0
aI1
aF57.979199999999999
aS'0'
aS'1'
aI3
aS'0'
aF29.881137667304014
aI0
aI0
aF7.2291999999999996
aS'0'
aS'1'
aI3
aS'0'
aF40.5
aI0
aI0
aF7.75
aS'1'
aS'0'
aI2
aS'1'
aF50
aI0
aI0
aF10.5
aS'0'
aS'0'
aI1
aS'0'
aF29.881137667304014
aI0
aI0
aF221.7792
aS'0'
aS'0'
aI3
aS'0'
aF39
aI0
aI0
aF7.9249999999999998
aS'0'
aS'0'
aI2
aS'0'
aF23
aI2
aI1
aF11.5
aS'0'
aS'0'
aI2
aS'1'
aF2
aI1
aI1
aF26
aS'0'
aS'0'
aI3
aS'0'
aF29.881137667304014
aI0
aI0
aF7.2291999999999996
aS'0'
aS'1'
aI3
aS'0'
aF17
aI1
aI1
aF7.2291999999999996
aS'0'
aS'1'
aI3
aS'1'
aF29.881137667304014
aI0
aI2
aF22.3583
aS'0'
aS'1'
aI3
aS'1'
aF30
aI0
aI0
aF8.6624999999999996
aS'0'
aS'0'
aI2
aS'1'
aF7
aI0
aI2
aF26.25
aS'0'
aS'0'
aI1
aS'0'
aF45
aI0
aI0
aF26.550000000000001
aS'0'
aS'0'
aI1
aS'1'
aF30
aI0
aI0
aF106.425
aS'0'
aS'1'
aI3
aS'0'
aF29.881137667304014
aI0
aI0
aF14.5
aS'0'
aS'0'
aI1
aS'1'
aF22
aI0
aI2
aF49.5
aS'0'
aS'1'
aI1
aS'1'
aF36
aI0
aI2
aF71
aS'0'
aS'0'
aI3
aS'1'
aF9
aI4
aI2
aF31.274999999999999
aS'0'
aS'0'
aI3
aS'1'
aF11
aI4
aI2
aF31.274999999999999
aS'0'
aS'0'
aI2
aS'0'
aF32
aI1
aI0
aF26
aS'0'
aS'0'
aI1
aS'0'
aF50
aI1
aI0
aF106.425
aS'0'
aS'1'
aI1
aS'0'
aF64
aI0
aI0
aF26
aS'0'
aS'0'
aI2
aS'1'
aF19
aI1
aI0
aF26
aS'0'
aS'0'
aI2
aS'0'
aF29.881137667304014
aI0
aI0
aF13.862500000000001
aS'0'
aS'1'
aI3
aS'0'
aF33
aI1
aI1
aF20.524999999999999
aS'0'
aS'0'
aI2
aS'0'
aF8
aI1
aI1
aF36.75
aS'0'
aS'0'
aI1
aS'0'
aF17
aI0
aI2
aF110.88330000000001
aS'0'
aS'1'
aI2
aS'0'
aF27
aI0
aI0
aF26
aS'0'
aS'0'
aI3
aS'0'
aF29.881137667304014
aI0
aI0
aF7.8292000000000002
aS'1'
aS'0'
aI3
aS'0'
aF22
aI0
aI0
aF7.2249999999999996
aS'0'
aS'1'
aI3
aS'1'
aF22
aI0
aI0
aF7.7750000000000004
aS'0'
aS'0'
aI1
aS'0'
aF62
aI0
aI0
aF26.550000000000001
aS'0'
aS'0'
aI1
aS'1'
aF48
aI1
aI0
aF39.600000000000001
aS'0'
aS'1'
aI1
aS'0'
aF29.881137667304014
aI0
aI0
aF227.52500000000001
aS'0'
aS'1'
aI1
aS'1'
aF39
aI1
aI1
aF79.650000000000006
aS'0'
aS'0'
aI3
aS'1'
aF36
aI1
aI0
aF17.399999999999999
aS'0'
aS'0'
aI3
aS'0'
aF29.881137667304014
aI0
aI0
aF7.75
aS'1'
aS'0'
aI3
aS'0'
aF40
aI0
aI0
aF7.8958000000000004
aS'0'
aS'0'
aI2
aS'0'
aF28
aI0
aI0
aF13.5
aS'0'
aS'0'
aI3
aS'0'
aF29.881137667304014
aI0
aI0
aF8.0500000000000007
aS'0'
aS'0'
aI3
aS'1'
aF29.881137667304014
aI0
aI0
aF8.0500000000000007
aS'0'
aS'0'
aI3
aS'0'
aF24
aI2
aI0
aF24.149999999999999
aS'0'
aS'0'
aI3
aS'0'
aF19
aI0
aI0
aF7.8958000000000004
aS'0'
aS'0'
aI3
aS'1'
aF29
aI0
aI4
aF21.074999999999999
aS'0'
aS'0'
aI3
aS'0'
aF29.881137667304014
aI0
aI0
aF7.2291999999999996
aS'0'
aS'1'
aI3
aS'0'
aF32
aI0
aI0
aF7.8541999999999996
aS'0'
aS'0'
aI2
aS'0'
aF62
aI0
aI0
aF10.5
aS'0'
aS'0'
aI1
aS'1'
aF53
aI2
aI0
aF51.479199999999999
aS'0'
aS'0'
aI1
aS'0'
aF36
aI0
aI0
aF26.387499999999999
aS'0'
aS'0'
aI3
aS'1'
aF29.881137667304014
aI0
aI0
aF7.75
aS'1'
aS'0'
aI3
aS'0'
aF16
aI0
aI0
aF8.0500000000000007
aS'0'
aS'0'
aI3
aS'0'
aF19
aI0
aI0
aF14.5
aS'0'
aS'0'
aI2
aS'1'
aF34
aI0
aI0
aF13
aS'0'
aS'0'
aI1
aS'1'
aF39
aI1
aI0
aF55.899999999999999
aS'0'
aS'0'
aI3
aS'1'
aF29.881137667304014
aI1
aI0
aF14.458299999999999
aS'0'
aS'1'
aI3
aS'0'
aF32
aI0
aI0
aF7.9249999999999998
aS'0'
aS'0'
aI2
aS'1'
aF25
aI1
aI1
aF30
aS'0'
aS'0'
aI1
aS'1'
aF39
aI1
aI1
aF110.88330000000001
aS'0'
aS'1'
aI2
aS'0'
aF54
aI0
aI0
aF26
aS'0'
aS'0'
aI1
aS'0'
aF36
aI0
aI0
aF40.125
aS'0'
aS'1'
aI3
aS'0'
aF29.881137667304014
aI0
aI0
aF8.7125000000000004
aS'0'
aS'1'
aI1
aS'1'
aF18
aI0
aI2
aF79.650000000000006
aS'0'
aS'0'
aI2
aS'0'
aF47
aI0
aI0
aF15
aS'0'
aS'0'
aI1
aS'0'
aF60
aI1
aI1
aF79.200000000000003
aS'0'
aS'1'
aI3
aS'0'
aF22
aI0
aI0
aF8.0500000000000007
aS'0'
aS'0'
aI3
aS'0'
aF29.881137667304014
aI0
aI0
aF8.0500000000000007
aS'0'
aS'0'
aI3
aS'0'
aF35
aI0
aI0
aF7.125
aS'0'
aS'0'
aI1
aS'1'
aF52
aI1
aI0
aF78.2667
aS'0'
aS'1'
aI3
aS'0'
aF47
aI0
aI0
aF7.25
aS'0'
aS'0'
aI3
aS'1'
aF29.881137667304014
aI0
aI2
aF7.75
aS'1'
aS'0'
aI2
aS'0'
aF37
aI1
aI0
aF26
aS'0'
aS'0'
aI3
aS'0'
aF36
aI1
aI1
aF24.149999999999999
aS'0'
aS'0'
aI2
aS'1'
aF29.881137667304014
aI0
aI0
aF33
aS'0'
aS'0'
aI3
aS'0'
aF49
aI0
aI0
aF0
aS'0'
aS'0'
aI3
aS'0'
aF29.881137667304014
aI0
aI0
aF7.2249999999999996
aS'0'
aS'1'
aI1
aS'0'
aF49
aI1
aI0
aF56.929200000000002
aS'0'
aS'1'
aI2
aS'1'
aF24
aI2
aI1
aF27
aS'0'
aS'0'
aI3
aS'0'
aF29.881137667304014
aI0
aI0
aF7.8958000000000004
aS'0'
aS'0'
aI1
aS'0'
aF29.881137667304014
aI0
aI0
aF42.399999999999999
aS'0'
aS'0'
aI3
aS'0'
aF44
aI0
aI0
aF8.0500000000000007
aS'0'
aS'0'
aI1
aS'0'
aF35
aI0
aI0
aF26.550000000000001
aS'0'
aS'1'
aI3
aS'0'
aF36
aI1
aI0
aF15.550000000000001
aS'0'
aS'0'
aI3
aS'0'
aF30
aI0
aI0
aF7.8958000000000004
aS'0'
aS'0'
aI1
aS'0'
aF27
aI0
aI0
aF30.5
aS'0'
aS'0'
aI2
aS'1'
aF22
aI1
aI2
aF41.5792
aS'0'
aS'1'
aI1
aS'1'
aF40
aI0
aI0
aF153.46250000000001
aS'0'
aS'0'
aI3
aS'1'
aF39
aI1
aI5
aF31.274999999999999
aS'0'
aS'0'
aI3
aS'0'
aF29.881137667304014
aI0
aI0
aF7.0499999999999998
aS'0'
aS'0'
aI3
aS'1'
aF29.881137667304014
aI1
aI0
aF15.5
aS'1'
aS'0'
aI3
aS'0'
aF29.881137667304014
aI0
aI0
aF7.75
aS'1'
aS'0'
aI3
aS'0'
aF35
aI0
aI0
aF8.0500000000000007
aS'0'
aS'0'
aI2
aS'1'
aF24
aI1
aI2
aF65
aS'0'
aS'0'
aI3
aS'0'
aF34
aI1
aI1
aF14.4
aS'0'
aS'0'
aI3
aS'1'
aF26
aI1
aI0
aF16.100000000000001
aS'0'
aS'0'
aI2
aS'1'
aF4
aI2
aI1
aF39
aS'0'
aS'0'
aI2
aS'0'
aF26
aI0
aI0
aF10.5
aS'0'
aS'0'
aI3
aS'0'
aF27
aI1
aI0
aF14.4542
aS'0'
aS'1'
aI1
aS'0'
aF42
aI1
aI0
aF52.554200000000002
aS'0'
aS'0'
aI3
aS'0'
aF20
aI1
aI1
aF15.7417
aS'0'
aS'1'
aI3
aS'0'
aF21
aI0
aI0
aF7.8541999999999996
aS'0'
aS'0'
aI3
aS'0'
aF21
aI0
aI0
aF16.100000000000001
aS'0'
aS'0'
aI1
aS'0'
aF61
aI0
aI0
aF32.320799999999998
aS'0'
aS'0'
aI2
aS'0'
aF57
aI0
aI0
aF12.35
aS'1'
aS'0'
aI1
aS'1'
aF21
aI0
aI0
aF77.958299999999994
aS'0'
aS'0'
aI3
aS'0'
aF26
aI0
aI0
aF7.8958000000000004
aS'0'
aS'0'
aI3
aS'0'
aF29.881137667304014
aI0
aI0
aF7.7332999999999998
aS'1'
aS'0'
aI1
aS'0'
aF80
aI0
aI0
aF30
aS'0'
aS'0'
aI3
aS'0'
aF51
aI0
aI0
aF7.0541999999999998
aS'0'
aS'0'
aI1
aS'0'
aF32
aI0
aI0
aF30.5
aS'0'
aS'1'
aI1
aS'0'
aF29.881137667304014
aI0
aI0
aF0
aS'0'
aS'0'
aI3
aS'1'
aF9
aI3
aI2
aF27.899999999999999
aS'0'
aS'0'
aI2
aS'1'
aF28
aI0
aI0
aF13
aS'0'
aS'0'
aI3
aS'0'
aF32
aI0
aI0
aF7.9249999999999998
aS'0'
aS'0'
aI2
aS'0'
aF31
aI1
aI1
aF26.25
aS'0'
aS'0'
aI3
aS'1'
aF41
aI0
aI5
aF39.6875
aS'0'
aS'0'
aI3
aS'0'
aF29.881137667304014
aI1
aI0
aF16.100000000000001
aS'0'
aS'0'
aI3
aS'0'
aF20
aI0
aI0
aF7.8541999999999996
aS'0'
aS'0'
aI1
aS'1'
aF24
aI0
aI0
aF69.299999999999997
aS'0'
aS'1'
aI3
aS'1'
aF2
aI3
aI2
aF27.899999999999999
aS'0'
aS'0'
aI3
aS'0'
aF29.881137667304014
aI0
aI0
aF56.495800000000003
aS'0'
aS'0'
aI3
aS'1'
aF0.75
aI2
aI1
aF19.258299999999998
aS'0'
aS'1'
aI1
aS'0'
aF48
aI1
aI0
aF76.729200000000006
aS'0'
aS'1'
aI3
aS'0'
aF19
aI0
aI0
aF7.8958000000000004
aS'0'
aS'0'
aI1
aS'0'
aF56
aI0
aI0
aF35.5
aS'0'
aS'1'
aI3
aS'0'
aF29.881137667304014
aI0
aI0
aF7.5499999999999998
aS'0'
aS'0'
aI3
aS'1'
aF23
aI0
aI0
aF7.5499999999999998
aS'0'
aS'0'
aI3
aS'0'
aF29.881137667304014
aI0
aI0
aF7.8958000000000004
aS'0'
aS'0'
aI2
aS'1'
aF18
aI0
aI1
aF23
aS'0'
aS'0'
aI3
aS'0'
aF21
aI0
aI0
aF8.4332999999999991
aS'0'
aS'0'
aI3
aS'1'
aF29.881137667304014
aI0
aI0
aF7.8292000000000002
aS'1'
aS'0'
aI3
aS'1'
aF18
aI0
aI0
aF6.75
aS'1'
aS'0'
aI2
aS'0'
aF24
aI2
aI0
aF73.5
aS'0'
aS'0'
aI3
aS'0'
aF29.881137667304014
aI0
aI0
aF7.8958000000000004
aS'0'
aS'0'
aI3
aS'1'
aF32
aI1
aI1
aF15.5
aS'1'
aS'0'
aI2
aS'0'
aF23
aI0
aI0
aF13
aS'0'
aS'0'
aI1
aS'0'
aF58
aI0
aI2
aF113.27500000000001
aS'0'
aS'1'
aI1
aS'0'
aF50
aI2
aI0
aF133.65000000000001
aS'0'
aS'0'
aI3
aS'0'
aF40
aI0
aI0
aF7.2249999999999996
aS'0'
aS'1'
aI1
aS'0'
aF47
aI0
aI0
aF25.587499999999999
aS'0'
aS'0'
aI3
aS'0'
aF36
aI0
aI0
aF7.4958
aS'0'
aS'0'
aI3
aS'0'
aF20
aI1
aI0
aF7.9249999999999998
aS'0'
aS'0'
aI2
aS'0'
aF32
aI2
aI0
aF73.5
aS'0'
aS'0'
aI2
aS'0'
aF25
aI0
aI0
aF13
aS'0'
aS'0'
aI3
aS'0'
aF29.881137667304014
aI0
aI0
aF7.7750000000000004
aS'0'
aS'0'
aI3
aS'0'
aF43
aI0
aI0
aF8.0500000000000007
aS'0'
aS'0'
aI1
aS'1'
aF29.881137667304014
aI1
aI0
aF52
aS'0'
aS'0'
aI2
aS'1'
aF40
aI1
aI1
aF39
aS'0'
aS'0'
aI1
aS'0'
aF31
aI1
aI0
aF52
aS'0'
aS'0'
aI2
aS'0'
aF70
aI0
aI0
aF10.5
aS'0'
aS'0'
aI2
aS'0'
aF31
aI0
aI0
aF13
aS'0'
aS'0'
aI2
aS'0'
aF29.881137667304014
aI0
aI0
aF0
aS'0'
aS'0'
aI3
aS'0'
aF18
aI0
aI0
aF7.7750000000000004
aS'0'
aS'0'
aI3
aS'0'
aF24.5
aI0
aI0
aF8.0500000000000007
aS'0'
aS'0'
aI3
aS'1'
aF18
aI0
aI0
aF9.8416999999999994
aS'0'
aS'0'
aI3
aS'1'
aF43
aI1
aI6
aF46.899999999999999
aS'0'
aS'0'
aI1
aS'0'
aF36
aI0
aI1
aF512.32920000000001
aS'0'
aS'1'
aI3
aS'1'
aF29.881137667304014
aI0
aI0
aF8.1374999999999993
aS'1'
aS'0'
aI1
aS'0'
aF27
aI0
aI0
aF76.729200000000006
aS'0'
aS'1'
aI3
aS'0'
aF20
aI0
aI0
aF9.2249999999999996
aS'0'
aS'0'
aI3
aS'0'
aF14
aI5
aI2
aF46.899999999999999
aS'0'
aS'0'
aI2
aS'0'
aF60
aI1
aI1
aF39
aS'0'
aS'0'
aI2
aS'0'
aF25
aI1
aI2
aF41.5792
aS'0'
aS'1'
aI3
aS'0'
aF14
aI4
aI1
aF39.6875
aS'0'
aS'0'
aI3
aS'0'
aF19
aI0
aI0
aF10.1708
aS'0'
aS'0'
aI3
aS'0'
aF18
aI0
aI0
aF7.7957999999999998
aS'0'
aS'0'
aI1
aS'1'
aF15
aI0
aI1
aF211.33750000000001
aS'0'
aS'0'
aI1
aS'0'
aF31
aI1
aI0
aF57
aS'0'
aS'0'
aI3
aS'1'
aF4
aI0
aI1
aF13.416700000000001
aS'0'
aS'1'
aI3
aS'0'
aF29.881137667304014
aI0
aI0
aF56.495800000000003
aS'0'
aS'0'
aI3
aS'0'
aF25
aI0
aI0
aF7.2249999999999996
aS'0'
aS'1'
aI1
aS'0'
aF60
aI0
aI0
aF26.550000000000001
aS'0'
aS'0'
aI2
aS'0'
aF52
aI0
aI0
aF13.5
aS'0'
aS'0'
aI3
aS'0'
aF44
aI0
aI0
aF8.0500000000000007
aS'0'
aS'0'
aI3
aS'1'
aF29.881137667304014
aI0
aI0
aF7.7332999999999998
aS'1'
aS'0'
aI1
aS'0'
aF49
aI1
aI1
aF110.88330000000001
aS'0'
aS'1'
aI3
aS'0'
aF42
aI0
aI0
aF7.6500000000000004
aS'0'
aS'0'
aI1
aS'1'
aF18
aI1
aI0
aF227.52500000000001
aS'0'
aS'1'
aI1
aS'0'
aF35
aI0
aI0
aF26.287500000000001
aS'0'
aS'0'
aI3
aS'1'
aF18
aI0
aI1
aF14.4542
aS'0'
aS'1'
aI3
aS'0'
aF25
aI0
aI0
aF7.7416999999999998
aS'1'
aS'0'
aI3
aS'0'
aF26
aI1
aI0
aF7.8541999999999996
aS'0'
aS'0'
aI2
aS'0'
aF39
aI0
aI0
aF26
aS'0'
aS'0'
aI2
aS'1'
aF45
aI0
aI0
aF13.5
aS'0'
aS'0'
aI1
aS'0'
aF42
aI0
aI0
aF26.287500000000001
aS'0'
aS'0'
aI1
aS'1'
aF22
aI0
aI0
aF151.55000000000001
aS'0'
aS'0'
aI3
aS'0'
aF29.881137667304014
aI1
aI1
aF15.245799999999999
aS'0'
aS'1'
aI1
aS'1'
aF24
aI0
aI0
aF49.504199999999997
aS'0'
aS'1'
aI1
aS'0'
aF29.881137667304014
aI0
aI0
aF26.550000000000001
aS'0'
aS'0'
aI1
aS'0'
aF48
aI1
aI0
aF52
aS'0'
aS'0'
aI3
aS'0'
aF29
aI0
aI0
aF9.4832999999999998
aS'0'
aS'0'
aI2
aS'0'
aF52
aI0
aI0
aF13
aS'0'
aS'0'
aI3
aS'0'
aF19
aI0
aI0
aF7.6500000000000004
aS'0'
aS'0'
aI1
aS'1'
aF38
aI0
aI0
aF227.52500000000001
aS'0'
aS'1'
aI2
aS'1'
aF27
aI0
aI0
aF10.5
aS'0'
aS'0'
aI3
aS'0'
aF29.881137667304014
aI0
aI0
aF15.5
aS'1'
aS'0'
aI3
aS'0'
aF33
aI0
aI0
aF7.7750000000000004
aS'0'
aS'0'
aI2
aS'1'
aF6
aI0
aI1
aF33
aS'0'
aS'0'
aI3
aS'0'
aF17
aI1
aI0
aF7.0541999999999998
aS'0'
aS'0'
aI2
aS'0'
aF34
aI0
aI0
aF13
aS'0'
aS'0'
aI2
aS'0'
aF50
aI0
aI0
aF13
aS'0'
aS'0'
aI1
aS'0'
aF27
aI1
aI0
aF53.100000000000001
aS'0'
aS'0'
aI3
aS'0'
aF20
aI0
aI0
aF8.6624999999999996
aS'0'
aS'0'
aI2
aS'1'
aF30
aI3
aI0
aF21
aS'0'
aS'0'
aI3
aS'1'
aF29.881137667304014
aI0
aI0
aF7.7374999999999998
aS'1'
aS'0'
aI2
aS'0'
aF25
aI1
aI0
aF26
aS'0'
aS'0'
aI3
aS'1'
aF25
aI1
aI0
aF7.9249999999999998
aS'0'
aS'0'
aI1
aS'1'
aF29
aI0
aI0
aF211.33750000000001
aS'0'
aS'0'
aI3
aS'0'
aF11
aI0
aI0
aF18.787500000000001
aS'0'
aS'1'
aI2
aS'0'
aF29.881137667304014
aI0
aI0
aF0
aS'0'
aS'0'
aI2
aS'0'
aF23
aI0
aI0
aF13
aS'0'
aS'0'
aI2
aS'0'
aF23
aI0
aI0
aF13
aS'0'
aS'0'
aI3
aS'0'
aF28.5
aI0
aI0
aF16.100000000000001
aS'0'
aS'0'
aI3
aS'1'
aF48
aI1
aI3
aF34.375
aS'0'
aS'0'
aI1
aS'0'
aF35
aI0
aI0
aF512.32920000000001
aS'0'
aS'1'
aI3
aS'0'
aF29.881137667304014
aI0
aI0
aF7.8958000000000004
aS'0'
aS'0'
aI3
aS'0'
aF29.881137667304014
aI0
aI0
aF7.8958000000000004
aS'0'
aS'0'
aI1
aS'0'
aF29.881137667304014
aI0
aI0
aF30
aS'0'
aS'0'
aI1
aS'0'
aF36
aI1
aI0
aF78.849999999999994
aS'0'
aS'0'
aI1
aS'1'
aF21
aI2
aI2
aF262.375
aS'0'
aS'1'
aI3
aS'0'
aF24
aI1
aI0
aF16.100000000000001
aS'0'
aS'0'
aI3
aS'0'
aF31
aI0
aI0
aF7.9249999999999998
aS'0'
aS'0'
aI1
aS'0'
aF70
aI1
aI1
aF71
aS'0'
aS'0'
aI3
aS'0'
aF16
aI1
aI1
aF20.25
aS'0'
aS'0'
aI2
aS'1'
aF30
aI0
aI0
aF13
aS'0'
aS'0'
aI1
aS'0'
aF19
aI1
aI0
aF53.100000000000001
aS'0'
aS'0'
aI3
aS'0'
aF31
aI0
aI0
aF7.75
aS'1'
aS'0'
aI2
aS'1'
aF4
aI1
aI1
aF23
aS'0'
aS'0'
aI3
aS'0'
aF6
aI0
aI1
aF12.475
aS'0'
aS'0'
aI3
aS'0'
aF33
aI0
aI0
aF9.5
aS'0'
aS'0'
aI3
aS'0'
aF23
aI0
aI0
aF7.8958000000000004
aS'0'
aS'0'
aI2
aS'1'
aF48
aI1
aI2
aF65
aS'0'
aS'0'
aI2
aS'0'
aF0.67000000000000004
aI1
aI1
aF14.5
aS'0'
aS'0'
aI3
aS'0'
aF28
aI0
aI0
aF7.7957999999999998
aS'0'
aS'0'
aI2
aS'0'
aF18
aI0
aI0
aF11.5
aS'0'
aS'0'
aI3
aS'0'
aF34
aI0
aI0
aF8.0500000000000007
aS'0'
aS'0'
aI1
aS'1'
aF33
aI0
aI0
aF86.5
aS'0'
aS'0'
aI3
aS'0'
aF29.881137667304014
aI0
aI0
aF14.5
aS'0'
aS'0'
aI3
aS'0'
aF41
aI0
aI0
aF7.125
aS'0'
aS'0'
aI3
aS'0'
aF20
aI0
aI0
aF7.2291999999999996
aS'0'
aS'1'
aI1
aS'1'
aF36
aI1
aI2
aF120
aS'0'
aS'0'
aI3
aS'0'
aF16
aI0
aI0
aF7.7750000000000004
aS'0'
aS'0'
aI1
aS'1'
aF51
aI1
aI0
aF77.958299999999994
aS'0'
aS'0'
aI1
aS'0'
aF29.881137667304014
aI0
aI0
aF39.600000000000001
aS'0'
aS'1'
aI3
aS'1'
aF30.5
aI0
aI0
aF7.75
aS'1'
aS'0'
aI3
aS'0'
aF29.881137667304014
aI1
aI0
aF24.149999999999999
aS'1'
aS'0'
aI3
aS'0'
aF32
aI0
aI0
aF8.3625000000000007
aS'0'
aS'0'
aI3
aS'0'
aF24
aI0
aI0
aF9.5
aS'0'
aS'0'
aI3
aS'0'
aF48
aI0
aI0
aF7.8541999999999996
aS'0'
aS'0'
aI2
aS'1'
aF57
aI0
aI0
aF10.5
aS'0'
aS'0'
aI3
aS'0'
aF29.881137667304014
aI0
aI0
aF7.2249999999999996
aS'0'
aS'1'
aI2
aS'1'
aF54
aI1
aI3
aF23
aS'0'
aS'0'
aI3
aS'0'
aF18
aI0
aI0
aF7.75
aS'0'
aS'0'
aI3
aS'0'
aF29.881137667304014
aI0
aI0
aF7.75
aS'1'
aS'0'
aI3
aS'1'
aF5
aI0
aI0
aF12.475
aS'0'
aS'0'
aI3
aS'0'
aF29.881137667304014
aI0
aI0
aF7.7374999999999998
aS'1'
aS'0'
aI1
aS'1'
aF43
aI0
aI1
aF211.33750000000001
aS'0'
aS'0'
aI3
aS'1'
aF13
aI0
aI0
aF7.2291999999999996
aS'0'
aS'1'
aI1
aS'1'
aF17
aI1
aI0
aF57
aS'0'
aS'0'
aI1
aS'0'
aF29
aI0
aI0
aF30
aS'0'
aS'0'
aI3
aS'0'
aF29.881137667304014
aI1
aI2
aF23.449999999999999
aS'0'
aS'0'
aI3
aS'0'
aF25
aI0
aI0
aF7.0499999999999998
aS'0'
aS'0'
aI3
aS'0'
aF25
aI0
aI0
aF7.25
aS'0'
aS'0'
aI3
aS'1'
aF18
aI0
aI0
aF7.4958
aS'0'
aS'0'
aI3
aS'0'
aF8
aI4
aI1
aF29.125
aS'1'
aS'0'
aI3
aS'0'
aF1
aI1
aI2
aF20.574999999999999
aS'0'
aS'0'
aI1
aS'0'
aF46
aI0
aI0
aF79.200000000000003
aS'0'
aS'1'
aI3
aS'0'
aF29.881137667304014
aI0
aI0
aF7.75
aS'1'
aS'0'
aI2
aS'0'
aF16
aI0
aI0
aF26
aS'0'
aS'0'
aI3
aS'1'
aF29.881137667304014
aI8
aI2
aF69.549999999999997
aS'0'
aS'0'
aI1
aS'0'
aF29.881137667304014
aI0
aI0
aF30.695799999999998
aS'0'
aS'1'
aI3
aS'0'
aF25
aI0
aI0
aF7.8958000000000004
aS'0'
aS'0'
aI2
aS'0'
aF39
aI0
aI0
aF13
aS'0'
aS'0'
aI1
aS'1'
aF49
aI0
aI0
aF25.929200000000002
aS'0'
aS'0'
aI3
aS'1'
aF31
aI0
aI0
aF8.6832999999999991
aS'0'
aS'0'
aI3
aS'0'
aF30
aI0
aI0
aF7.2291999999999996
aS'0'
aS'1'
aI3
aS'1'
aF30
aI1
aI1
aF24.149999999999999
aS'0'
aS'0'
aI2
aS'0'
aF34
aI0
aI0
aF13
aS'0'
aS'0'
aI2
aS'1'
aF31
aI1
aI1
aF26.25
aS'0'
aS'0'
aI1
aS'0'
aF11
aI1
aI2
aF120
aS'0'
aS'0'
aI3
aS'0'
aF0.41999999999999998
aI0
aI1
aF8.5167000000000002
aS'0'
aS'1'
aI3
aS'0'
aF27
aI0
aI0
aF6.9749999999999996
aS'0'
aS'0'
aI3
aS'0'
aF31
aI0
aI0
aF7.7750000000000004
aS'0'
aS'0'
aI1
aS'0'
aF39
aI0
aI0
aF0
aS'0'
aS'0'
aI3
aS'1'
aF18
aI0
aI0
aF7.7750000000000004
aS'0'
aS'0'
aI2
aS'0'
aF39
aI0
aI0
aF13
aS'0'
aS'0'
aI1
aS'1'
aF33
aI1
aI0
aF53.100000000000001
aS'0'
aS'0'
aI3
aS'0'
aF26
aI0
aI0
aF7.8875000000000002
aS'0'
aS'0'
aI3
aS'0'
aF39
aI0
aI0
aF24.149999999999999
aS'0'
aS'0'
aI2
aS'0'
aF35
aI0
aI0
aF10.5
aS'0'
aS'0'
aI3
aS'1'
aF6
aI4
aI2
aF31.274999999999999
aS'0'
aS'0'
aI3
aS'0'
aF30.5
aI0
aI0
aF8.0500000000000007
aS'0'
aS'0'
aI1
aS'0'
aF29.881137667304014
aI0
aI0
aF0
aS'0'
aS'0'
aI3
aS'1'
aF23
aI0
aI0
aF7.9249999999999998
aS'0'
aS'0'
aI2
aS'0'
aF31
aI1
aI1
aF37.004199999999997
aS'0'
aS'1'
aI3
aS'0'
aF43
aI0
aI0
aF6.4500000000000002
aS'0'
aS'0'
aI3
aS'0'
aF10
aI3
aI2
aF27.899999999999999
aS'0'
aS'0'
aI1
aS'1'
aF52
aI1
aI1
aF93.5
aS'0'
aS'0'
aI3
aS'0'
aF27
aI0
aI0
aF8.6624999999999996
aS'0'
aS'0'
aI1
aS'0'
aF38
aI0
aI0
aF0
aS'0'
aS'0'
aI3
aS'1'
aF27
aI0
aI1
aF12.475
aS'0'
aS'0'
aI3
aS'0'
aF2
aI4
aI1
aF39.6875
aS'0'
aS'0'
aI3
aS'0'
aF29.881137667304014
aI0
aI0
aF6.9500000000000002
aS'1'
aS'0'
aI3
aS'0'
aF29.881137667304014
aI0
aI0
aF56.495800000000003
aS'0'
aS'0'
aI2
aS'0'
aF1
aI0
aI2
aF37.004199999999997
aS'0'
aS'1'
aI3
aS'0'
aF29.881137667304014
aI0
aI0
aF7.75
aS'1'
aS'0'
aI1
aS'1'
aF62
aI0
aI0
aF80
aS'1'
aS'1'
aI3
aS'1'
aF15
aI1
aI0
aF14.4542
aS'0'
aS'1'
aI2
aS'0'
aF0.82999999999999996
aI1
aI1
aF18.75
aS'0'
aS'0'
aI3
aS'0'
aF29.881137667304014
aI0
aI0
aF7.2291999999999996
aS'0'
aS'1'
aI3
aS'0'
aF23
aI0
aI0
aF7.8541999999999996
aS'0'
aS'0'
aI3
aS'0'
aF18
aI0
aI0
aF8.3000000000000007
aS'0'
aS'0'
aI1
aS'1'
aF39
aI1
aI1
aF83.158299999999997
aS'0'
aS'1'
aI3
aS'0'
aF21
aI0
aI0
aF8.6624999999999996
aS'0'
aS'0'
aI3
aS'0'
aF29.881137667304014
aI0
aI0
aF8.0500000000000007
aS'0'
aS'0'
aI3
aS'0'
aF32
aI0
aI0
aF56.495800000000003
aS'0'
aS'0'
aI1
aS'0'
aF29.881137667304014
aI0
aI0
aF29.699999999999999
aS'0'
aS'1'
aI3
aS'0'
aF20
aI0
aI0
aF7.9249999999999998
aS'0'
aS'0'
aI2
aS'0'
aF16
aI0
aI0
aF10.5
aS'0'
aS'0'
aI1
aS'1'
aF30
aI0
aI0
aF31
aS'0'
aS'1'
aI3
aS'0'
aF34.5
aI0
aI0
aF6.4375
aS'0'
aS'1'
aI3
aS'0'
aF17
aI0
aI0
aF8.6624999999999996
aS'0'
aS'0'
aI3
aS'0'
aF42
aI0
aI0
aF7.5499999999999998
aS'0'
aS'0'
aI3
aS'0'
aF29.881137667304014
aI8
aI2
aF69.549999999999997
aS'0'
aS'0'
aI3
aS'0'
aF35
aI0
aI0
aF7.8958000000000004
aS'0'
aS'1'
aI2
aS'0'
aF28
aI0
aI1
aF33
aS'0'
aS'0'
aI1
aS'1'
aF29.881137667304014
aI1
aI0
aF89.104200000000006
aS'0'
aS'1'
aI3
aS'0'
aF4
aI4
aI2
aF31.274999999999999
aS'0'
aS'0'
aI3
aS'0'
aF74
aI0
aI0
aF7.7750000000000004
aS'0'
aS'0'
aI3
aS'1'
aF9
aI1
aI1
aF15.245799999999999
aS'0'
aS'1'
aI1
aS'1'
aF16
aI0
aI1
aF39.399999999999999
aS'0'
aS'0'
aI2
aS'1'
aF44
aI1
aI0
aF26
aS'0'
aS'0'
aI3
aS'1'
aF18
aI0
aI1
aF9.3499999999999996
aS'0'
aS'0'
aI1
aS'1'
aF45
aI1
aI1
aF164.86670000000001
aS'0'
aS'0'
aI1
aS'0'
aF51
aI0
aI0
aF26.550000000000001
aS'0'
aS'0'
aI3
aS'1'
aF24
aI0
aI3
aF19.258299999999998
aS'0'
aS'1'
aI3
aS'0'
aF29.881137667304014
aI0
aI0
aF7.2291999999999996
aS'0'
aS'1'
aI3
aS'0'
aF41
aI2
aI0
aF14.1083
aS'0'
aS'0'
aI2
aS'0'
aF21
aI1
aI0
aF11.5
aS'0'
aS'0'
aI1
aS'1'
aF48
aI0
aI0
aF25.929200000000002
aS'0'
aS'0'
aI3
aS'1'
aF29.881137667304014
aI8
aI2
aF69.549999999999997
aS'0'
aS'0'
aI2
aS'0'
aF24
aI0
aI0
aF13
aS'0'
aS'0'
aI2
aS'1'
aF42
aI0
aI0
aF13
aS'0'
aS'0'
aI2
aS'1'
aF27
aI1
aI0
aF13.8583
aS'0'
aS'1'
aI1
aS'0'
aF31
aI0
aI0
aF50.495800000000003
aS'0'
aS'0'
aI3
aS'0'
aF29.881137667304014
aI0
aI0
aF9.5
aS'0'
aS'0'
aI3
aS'0'
aF4
aI1
aI1
aF11.1333
aS'0'
aS'0'
aI3
aS'0'
aF26
aI0
aI0
aF7.8958000000000004
aS'0'
aS'0'
aI1
aS'1'
aF47
aI1
aI1
aF52.554200000000002
aS'0'
aS'0'
aI1
aS'0'
aF33
aI0
aI0
aF5
aS'0'
aS'0'
aI3
aS'0'
aF47
aI0
aI0
aF9
aS'0'
aS'0'
aI2
aS'1'
aF28
aI1
aI0
aF24
aS'0'
aS'1'
aI3
aS'1'
aF15
aI0
aI0
aF7.2249999999999996
aS'0'
aS'1'
aI3
aS'0'
aF20
aI0
aI0
aF9.8458000000000006
aS'0'
aS'0'
aI3
aS'0'
aF19
aI0
aI0
aF7.8958000000000004
aS'0'
aS'0'
aI3
aS'0'
aF29.881137667304014
aI0
aI0
aF7.8958000000000004
aS'0'
aS'0'
aI1
aS'1'
aF56
aI0
aI1
aF83.158299999999997
aS'0'
aS'1'
aI2
aS'1'
aF25
aI0
aI1
aF26
aS'0'
aS'0'
aI3
aS'0'
aF33
aI0
aI0
aF7.8958000000000004
aS'0'
aS'0'
aI3
aS'1'
aF22
aI0
aI0
aF10.5167
aS'0'
aS'0'
aI2
aS'0'
aF28
aI0
aI0
aF10.5
aS'0'
aS'0'
aI3
aS'0'
aF25
aI0
aI0
aF7.0499999999999998
aS'0'
aS'0'
aI3
aS'1'
aF39
aI0
aI5
aF29.125
aS'1'
aS'0'
aI2
aS'0'
aF27
aI0
aI0
aF13
aS'0'
aS'0'
aI1
aS'1'
aF19
aI0
aI0
aF30
aS'0'
aS'0'
aI3
aS'1'
aF29.881137667304014
aI1
aI2
aF23.449999999999999
aS'0'
aS'0'
aI1
aS'0'
aF26
aI0
aI0
aF30
aS'0'
aS'1'
aI3
aS'0'
aF32
aI0
aI0
aF7.75
aS'1'
aS'0'
atb.